; Function Attrs: nofree norecurse nosync nounwind memory(read, inaccessiblemem: none) uwtable
define dso_local i32 @count_nonjunk_tlist_entries(ptr noundef readonly captures(address_is_null) %0) local_unnamed_addr #3 {
  %.not = icmp eq ptr %0, null
  br i1 %.not, label %._crit_edge, label %.lr.ph

.lr.ph:                                           ; preds = %1
  %2 = getelementptr inbounds nuw i8, ptr %0, i64 4
  %3 = load i32, ptr %2, align 4
  %4 = icmp sgt i32 %3, 0
  br i1 %4, label %.lr.ph20, label %._crit_edge

.lr.ph20:                                         ; preds = %.lr.ph
  %5 = getelementptr inbounds nuw i8, ptr %0, i64 16
  %6 = load ptr, ptr %5, align 8
  %wide.trip.count = zext nneg i32 %3 to i64
  br label %7

._crit_edge:                                      ; preds = %7, %.lr.ph, %1
  %.0.lcssa = phi i32 [ 0, %1 ], [ 0, %.lr.ph ], [ %spec.select, %7 ]
  ret i32 %.0.lcssa

7:                                                ; preds = %.lr.ph20, %7
  %indvars.iv = phi i64 [ 0, %.lr.ph20 ], [ %indvars.iv.next, %7 ]
  %.01418 = phi i32 [ 0, %.lr.ph20 ], [ %spec.select, %7 ]
  %8 = getelementptr inbounds nuw %union.ListCell, ptr %6, i64 %indvars.iv
  %9 = load ptr, ptr %8, align 8
  %10 = getelementptr inbounds nuw i8, ptr %9, i64 42
  %11 = load i8, ptr %10, align 2, !range !4, !noundef !5
  %12 = xor i8 %11, 1
  %not. = zext nneg i8 %12 to i32
  %spec.select = add i32 %.01418, %not.
  %indvars.iv.next = add nuw nsw i64 %indvars.iv, 1
  %exitcond.not = icmp eq i64 %indvars.iv.next, %wide.trip.count
  br i1 %exitcond.not, label %._crit_edge, label %7
}